Certificate:
    Data:
        Version: 3 (0x2)
        Serial Number: 3 (0x3)
        Signature Algorithm: sha1WithRSAEncryption
        Issuer: C=NO, O=Green AS, OU=Green Certificate Authority, CN=Green Email CA
        Validity
            Not Before: Apr 29 22:59:39 2021 GMT
            Not After : Apr 29 22:59:39 2023 GMT
        Subject: C=NO, ST=xxxxx, L=XXX, O=Green AS, OU=Green AS, CN=green
        Subject Public Key Info:
            Public Key Algorithm: rsaEncryption
                RSA Public-Key: (2048 bit)
                Modulus:
                    00:9f:31:bd:35:3b:69:76:6b:5d:af:7d:33:13:bc:
                    cd:fd:11:1a:67:b0:a4:e2:67:57:f4:c8:ba:de:4a:
                    0a:f4:fa:f9:b8:6d:60:69:7d:5e:c7:9e:55:1a:99:
                    89:15:1b:5c:57:c9:0c:b5:36:af:48:a1:50:95:02:
                    46:66:32:7a:53:16:09:d4:50:83:63:76:6a:02:92:
                    ec:3f:24:81:ae:27:d7:7c:b2:8b:32:5a:d3:b0:48:
                    1f:da:d2:3f:c1:b7:eb:67:26:23:2d:a9:b6:9e:dd:
                    92:54:91:f1:4f:51:48:a8:13:bd:b6:e8:74:17:cf:
                    03:94:82:bc:10:59:29:ed:ec:2d:b6:5e:34:b1:2e:
                    3b:08:b9:94:8e:dc:6a:34:0b:98:e7:d9:f4:21:70:
                    c7:56:72:8b:b5:93:c5:0e:1f:85:0e:a4:59:a4:75:
                    68:52:46:0e:51:5f:6c:b2:d1:30:3b:d9:6e:ee:d4:
                    91:6e:57:69:cf:1e:13:bb:aa:6f:09:c4:bf:8c:c3:
                    ed:f3:1d:c6:46:41:3d:4e:55:be:31:aa:5c:7a:af:
                    a9:ce:ae:2d:20:46:3c:cc:55:b6:d4:73:30:48:06:
                    54:68:d4:0f:24:b5:dd:8f:7e:10:ec:a5:7a:0a:a2:
                    34:cd:df:2b:b0:8a:c8:1f:bd:9e:d5:de:fa:c3:79:
                    a8:39
                Exponent: 65537 (0x10001)
        X509v3 extensions:
            X509v3 Key Usage: critical
                Digital Signature, Key Encipherment
            X509v3 Basic Constraints: 
                CA:FALSE
            X509v3 Extended Key Usage: 
                E-mail Protection, TLS Web Client Authentication, Any Extended Key Usage
            X509v3 Subject Key Identifier: 
                BA:D0:D7:6D:28:B4:00:5B:CB:4B:6C:31:60:E5:9E:03:3A:FF:DF:5C
            X509v3 Authority Key Identifier: 
                keyid:F5:E0:9F:AE:9D:E7:F5:7E:33:46:96:EA:3A:74:5B:A0:31:2D:C7:29

            Authority Information Access: 
                CA Issuers - URI:http://green.no/ca/email-ca.cer

            X509v3 CRL Distribution Points: 

                Full Name:
                  URI:

            X509v3 Subject Alternative Name: 
                <EMPTY>

    Signature Algorithm: sha1WithRSAEncryption
         7a:86:cd:9d:df:17:86:7f:a5:c2:6e:3b:01:1e:dc:b9:01:5c:
         a0:ff:36:03:ce:16:d4:39:49:41:22:6e:94:9a:27:f1:84:16:
         11:c5:37:14:8c:f7:36:cb:34:c6:e0:d4:40:77:c8:a3:d1:07:
         0b:98:8c:37:46:e5:5e:0f:23:97:cf:01:fd:a0:3b:28:cd:f2:
         e5:d3:66:02:94:bb:de:22:1d:63:3e:94:27:fa:90:a1:91:7e:
         c2:f8:cb:5a:72:12:6e:ef:7a:e5:40:c8:9a:ea:99:17:13:73:
         44:06:1d:f0:b7:4e:72:4e:0a:f7:22:ee:72:f0:88:ca:69:1c:
         e5:ed:c8:2d:a6:cc:ed:49:99:63:25:f2:da:a4:a1:c4:0e:f3:
         3b:2d:d0:79:78:6b:0c:fd:98:1b:3f:57:97:c4:b2:53:f3:fd:
         21:da:55:ed:cb:23:24:47:5a:bf:f7:4c:81:13:e1:52:66:24:
         bd:ce:66:d0:3e:77:06:47:f7:5f:3a:fa:1e:00:24:19:43:61:
         2d:48:d6:30:a2:e5:ee:d5:f0:70:4d:03:f7:39:d3:fc:b4:33:
         c3:4c:0c:7c:f5:a4:e9:1e:34:35:55:df:05:6c:9e:e7:62:bf:
         f8:d8:c5:54:b9:ce:2e:f6:ab:c1:70:93:43:e7:74:20:4f:a6:
         6e:52:e7:a6
-----BEGIN CERTIFICATE-----
MIIEGjCCAwKgAwIBAgIBAzANBgkqhkiG9w0BAQUFADBfMQswCQYDVQQGEwJOTzER
MA8GA1UECgwIR3JlZW4gQVMxJDAiBgNVBAsMG0dyZWVuIENlcnRpZmljYXRlIEF1
dGhvcml0eTEXMBUGA1UEAwwOR3JlZW4gRW1haWwgQ0EwHhcNMjEwNDI5MjI1OTM5
WhcNMjMwNDI5MjI1OTM5WjBhMQswCQYDVQQGEwJOTzEOMAwGA1UECAwFeHh4eHgx
DDAKBgNVBAcMA1hYWDERMA8GA1UECgwIR3JlZW4gQVMxETAPBgNVBAsMCEdyZWVu
IEFTMQ4wDAYDVQQDDAVncmVlbjCCASIwDQYJKoZIhvcNAQEBBQADggEPADCCAQoC
ggEBAJ8xvTU7aXZrXa99MxO8zf0RGmewpOJnV/TIut5KCvT6+bhtYGl9XseeVRqZ
iRUbXFfJDLU2r0ihUJUCRmYyelMWCdRQg2N2agKS7D8kga4n13yyizJa07BIH9rS
P8G362cmIy2ptp7dklSR8U9RSKgTvbbodBfPA5SCvBBZKe3sLbZeNLEuOwi5lI7c
ajQLmOfZ9CFwx1Zyi7WTxQ4fhQ6kWaR1aFJGDlFfbLLRMDvZbu7UkW5Xac8eE7uq
bwnEv4zD7fMdxkZBPU5VvjGqXHqvqc6uLSBGPMxVttRzMEgGVGjUDyS13Y9+EOyl
egqiNM3fK7CKyB+9ntXe+sN5qDkCAwEAAaOB3jCB2zAOBgNVHQ8BAf8EBAMCBaAw
CQYDVR0TBAIwADAjBgNVHSUEHDAaBggrBgEFBQcDBAYIKwYBBQUHAwIGBFUdJQAw
HQYDVR0OBBYEFLrQ120otABby0tsMWDlngM6/99cMB8GA1UdIwQYMBaAFPXgn66d
5/V+M0aW6jp0W6AxLccpMDsGCCsGAQUFBwEBBC8wLTArBggrBgEFBQcwAoYfaHR0
cDovL2dyZWVuLm5vL2NhL2VtYWlsLWNhLmNlcjARBgNVHR8ECjAIMAagBKAChgAw
CQYDVR0RBAIwADANBgkqhkiG9w0BAQUFAAOCAQEAeobNnd8Xhn+lwm47AR7cuQFc
oP82A84W1DlJQSJulJon8YQWEcU3FIz3Nss0xuDUQHfIo9EHC5iMN0blXg8jl88B
/aA7KM3y5dNmApS73iIdYz6UJ/qQoZF+wvjLWnISbu965UDImuqZFxNzRAYd8LdO
ck4K9yLucvCIymkc5e3ILabM7UmZYyXy2qShxA7zOy3QeXhrDP2YGz9Xl8SyU/P9
IdpV7csjJEdav/dMgRPhUmYkvc5m0D53Bkf3Xzr6HgAkGUNhLUjWMKLl7tXwcE0D
9znT/LQzw0wMfPWk6R40NVXfBWye52K/+NjFVLnOLvarwXCTQ+d0IE+mblLnpg==
-----END CERTIFICATE-----
